target datalayout = "e-m:e-p270:32:32-p271:32:32-p272:64:64-i64:64-i128:128-f80:128-n8:16:32:64-S128"
target triple = "x86_64-pc-linux-gnu"

%struct._php_random_status_state_mt19937 = type { i32, i32, [624 x i32] }

; Function Attrs: inlinehint nounwind uwtable
define dso_local void @php_random_mt19937_seed32(ptr noundef %0, i32 noundef %1) #0 {
  %3 = alloca ptr, align 8
  %4 = alloca i32, align 4
  %5 = alloca i32, align 4
  %6 = alloca i32, align 4
  store ptr %0, ptr %3, align 8, !tbaa !4
  store i32 %1, ptr %4, align 4, !tbaa !9
  call void @llvm.lifetime.start.p0(i64 4, ptr %5) #10
  call void @llvm.lifetime.start.p0(i64 4, ptr %6) #10
  %7 = load i32, ptr %4, align 4, !tbaa !9
  %8 = load ptr, ptr %3, align 8, !tbaa !4
  %9 = getelementptr inbounds nuw %struct._php_random_status_state_mt19937, ptr %8, i32 0, i32 2
  %10 = getelementptr inbounds [624 x i32], ptr %9, i64 0, i64 0
  store i32 %7, ptr %10, align 4, !tbaa !9
  store i32 1, ptr %5, align 4, !tbaa !9
  br label %11

11:                                               ; preds = %35, %2
  %12 = load i32, ptr %5, align 4, !tbaa !9
  %13 = icmp ult i32 %12, 624
  br i1 %13, label %14, label %38

14:                                               ; preds = %11
  %15 = load ptr, ptr %3, align 8, !tbaa !4
  %16 = getelementptr inbounds nuw %struct._php_random_status_state_mt19937, ptr %15, i32 0, i32 2
  %17 = load i32, ptr %5, align 4, !tbaa !9
  %18 = sub i32 %17, 1
  %19 = zext i32 %18 to i64
  %20 = getelementptr inbounds nuw [624 x i32], ptr %16, i64 0, i64 %19
  %21 = load i32, ptr %20, align 4, !tbaa !9
  store i32 %21, ptr %6, align 4, !tbaa !9
  %22 = load i32, ptr %6, align 4, !tbaa !9
  %23 = load i32, ptr %6, align 4, !tbaa !9
  %24 = lshr i32 %23, 30
  %25 = xor i32 %22, %24
  %26 = mul i32 1812433253, %25
  %27 = load i32, ptr %5, align 4, !tbaa !9
  %28 = add i32 %26, %27
  %29 = and i32 %28, -1
  %30 = load ptr, ptr %3, align 8, !tbaa !4
  %31 = getelementptr inbounds nuw %struct._php_random_status_state_mt19937, ptr %30, i32 0, i32 2
  %32 = load i32, ptr %5, align 4, !tbaa !9
  %33 = zext i32 %32 to i64
  %34 = getelementptr inbounds nuw [624 x i32], ptr %31, i64 0, i64 %33
  store i32 %29, ptr %34, align 4, !tbaa !9
  br label %35

35:                                               ; preds = %14
  %36 = load i32, ptr %5, align 4, !tbaa !9
  %37 = add i32 %36, 1
  store i32 %37, ptr %5, align 4, !tbaa !9
  br label %11

38:                                               ; preds = %11
  %39 = load i32, ptr %5, align 4, !tbaa !9
  %40 = load ptr, ptr %3, align 8, !tbaa !4
  %41 = getelementptr inbounds nuw %struct._php_random_status_state_mt19937, ptr %40, i32 0, i32 0
  store i32 %39, ptr %41, align 4, !tbaa !11
  %42 = load ptr, ptr %3, align 8, !tbaa !4
  call void @mt19937_reload(ptr noundef %42)
  call void @llvm.lifetime.end.p0(i64 4, ptr %6) #10
  call void @llvm.lifetime.end.p0(i64 4, ptr %5) #10
  ret void
}

; Function Attrs: inlinehint nounwind uwtable
define internal i32 @php_random_bytes_silent(ptr noundef nonnull %0, i64 noundef %1) #0 {
  %3 = alloca ptr, align 8
  %4 = alloca i64, align 8
  store ptr %0, ptr %3, align 8, !tbaa !16
  store i64 %1, ptr %4, align 8, !tbaa !21
  %5 = load ptr, ptr %3, align 8, !tbaa !16
  %6 = load i64, ptr %4, align 8, !tbaa !21
  %7 = call i32 @php_random_bytes(ptr noundef %5, i64 noundef %6, i1 noundef zeroext false)
  ret i32 %7
}

; Function Attrs: nounwind uwtable
define dso_local void @php_random_mt19937_seed_default(ptr noundef %0) #2 {
  %2 = alloca ptr, align 8
  %3 = alloca i32, align 4
  store ptr %0, ptr %2, align 8, !tbaa !4
  call void @llvm.lifetime.start.p0(i64 4, ptr %3) #10
  store i32 0, ptr %3, align 4, !tbaa !9
  %4 = call i32 @php_random_bytes_silent(ptr noundef %3, i64 noundef 4)
  %5 = icmp eq i32 %4, -1
  br i1 %5, label %6, label %9

6:                                                ; preds = %1
  %7 = call i64 @php_random_generate_fallback_seed()
  %8 = trunc i64 %7 to i32
  store i32 %8, ptr %3, align 4, !tbaa !9
  br label %9

9:                                                ; preds = %6, %1
  %10 = load ptr, ptr %2, align 8, !tbaa !4
  %11 = load i32, ptr %3, align 4, !tbaa !9
  call void @php_random_mt19937_seed32(ptr noundef %10, i32 noundef %11)
  call void @llvm.lifetime.end.p0(i64 4, ptr %3) #10
  ret void
}