; Function Attrs: nounwind uwtable
define dso_local void @php_random_mt19937_seed_default(ptr noundef captures(none) initializes((8, 12)) %0) local_unnamed_addr #3 {
  %2 = alloca i32, align 4
  call void @llvm.lifetime.start.p0(i64 4, ptr nonnull %2) #7
  store i32 0, ptr %2, align 4, !tbaa !4
  %3 = call i32 @php_random_bytes(ptr noundef nonnull %2, i64 noundef 4, i1 noundef zeroext false) #7
  %4 = icmp eq i32 %3, -1
  br i1 %4, label %5, label %._crit_edge

._crit_edge:                                      ; preds = %1
  %.pre = load i32, ptr %2, align 4, !tbaa !4
  br label %8

5:                                                ; preds = %1
  %6 = call i64 @php_random_generate_fallback_seed() #7
  %7 = trunc i64 %6 to i32
  br label %8

8:                                                ; preds = %._crit_edge, %5
  %9 = phi i32 [ %.pre, %._crit_edge ], [ %7, %5 ]
  %10 = getelementptr inbounds nuw i8, ptr %0, i64 8
  store i32 %9, ptr %10, align 4, !tbaa !4
  br label %11

11:                                               ; preds = %11, %8
  %12 = phi i32 [ %9, %8 ], [ %17, %11 ]
  %indvars.iv.i = phi i64 [ 1, %8 ], [ %indvars.iv.next.i, %11 ]
  %13 = lshr i32 %12, 30
  %14 = xor i32 %13, %12
  %15 = mul i32 %14, 1812433253
  %16 = trunc nuw nsw i64 %indvars.iv.i to i32
  %17 = add i32 %15, %16
  %18 = getelementptr inbounds nuw [624 x i32], ptr %10, i64 0, i64 %indvars.iv.i
  store i32 %17, ptr %18, align 4, !tbaa !4
  %indvars.iv.next.i = add nuw nsw i64 %indvars.iv.i, 1
  %exitcond.not.i = icmp eq i64 %indvars.iv.next.i, 624
  br i1 %exitcond.not.i, label %php_random_mt19937_seed32.exit, label %11

php_random_mt19937_seed32.exit:                   ; preds = %11
  store i32 624, ptr %0, align 4, !tbaa !8
  call fastcc void @mt19937_reload(ptr noundef nonnull %0)
  call void @llvm.lifetime.end.p0(i64 4, ptr nonnull %2) #7
  ret void
}